; ModuleID = '30/2009.c'
source_filename = "30/2009.c"
target datalayout = "e-m:e-p270:32:32-p271:32:32-p272:64:64-i64:64-f80:128-n8:16:32:64-S128"
target triple = "x86_64-pc-linux-gnu"

@.str = private unnamed_addr constant [3 x i8] c"%d\00", align 1

; Function Attrs: noinline nounwind uwtable
define dso_local i32 @main() #0 {
  %1 = alloca i32, align 4
  %2 = alloca i32, align 4
  %3 = alloca i32, align 4
  %4 = alloca i32, align 4
  store i32 0, i32* %1, align 4
  store i32 0, i32* %2, align 4
  %5 = call i32 (i8*, ...) @__isoc99_scanf(i8* getelementptr inbounds ([3 x i8], [3 x i8]* @.str, i64 0, i64 0), i32* %3)
  store i32 1, i32* %4, align 4
  br label %6

6:                                                ; preds = %45, %0
  %7 = load i32, i32* %4, align 4
  %8 = load i32, i32* %3, align 4
  %9 = icmp sle i32 %7, %8
  br i1 %9, label %10, label %48

10:                                               ; preds = %6
  %11 = load i32, i32* %4, align 4
  %12 = icmp slt i32 %11, 7
  br i1 %12, label %13, label %19

13:                                               ; preds = %10
  %14 = load i32, i32* %4, align 4
  %15 = load i32, i32* %4, align 4
  %16 = mul nsw i32 %14, %15
  %17 = load i32, i32* %2, align 4
  %18 = add nsw i32 %17, %16
  store i32 %18, i32* %2, align 4
  br label %44

19:                                               ; preds = %10
  %20 = load i32, i32* %4, align 4
  %21 = icmp sge i32 %20, 7
  br i1 %21, label %22, label %43

22:                                               ; preds = %19
  %23 = load i32, i32* %4, align 4
  %24 = srem i32 %23, 7
  %25 = icmp eq i32 %24, 0
  br i1 %25, label %35, label %26

26:                                               ; preds = %22
  %27 = load i32, i32* %4, align 4
  %28 = sub nsw i32 %27, 7
  %29 = srem i32 %28, 10
  %30 = icmp eq i32 %29, 0
  br i1 %30, label %35, label %31

31:                                               ; preds = %26
  %32 = load i32, i32* %4, align 4
  %33 = sdiv i32 %32, 10
  %34 = icmp eq i32 %33, 7
  br i1 %34, label %35, label %36

35:                                               ; preds = %31, %26, %22
  br label %45

36:                                               ; preds = %31
  %37 = load i32, i32* %4, align 4
  %38 = load i32, i32* %4, align 4
  %39 = mul nsw i32 %37, %38
  %40 = load i32, i32* %2, align 4
  %41 = add nsw i32 %40, %39
  store i32 %41, i32* %2, align 4
  br label %42

42:                                               ; preds = %36
  br label %43

43:                                               ; preds = %42, %19
  br label %44

44:                                               ; preds = %43, %13
  br label %45

45:                                               ; preds = %44, %35
  %46 = load i32, i32* %4, align 4
  %47 = add nsw i32 %46, 1
  store i32 %47, i32* %4, align 4
  br label %6

48:                                               ; preds = %6
  %49 = load i32, i32* %2, align 4
  %50 = call i32 (i8*, ...) @printf(i8* getelementptr inbounds ([3 x i8], [3 x i8]* @.str, i64 0, i64 0), i32 %49)
  ret i32 0
}

declare dso_local i32 @__isoc99_scanf(i8*, ...) #1

declare dso_local i32 @printf(i8*, ...) #1


!llvm.module.flags = !{!0}
!llvm.ident = !{!1}

!0 = !{i32 1, !"wchar_size", i32 4}
!1 = !{!"clang version 10.0.0-4ubuntu1 "}
