; ModuleID = 'source-C-CXX/29/2009.c'
source_filename = "source-C-CXX/29/2009.c"
target datalayout = "e-m:e-p270:32:32-p271:32:32-p272:64:64-i64:64-f80:128-n8:16:32:64-S128"
target triple = "x86_64-pc-linux-gnu"

@.str = private unnamed_addr constant [3 x i8] c"%d\00", align 1
@switch.table.main = private unnamed_addr constant [6 x i32] [i32 1, i32 5, i32 14, i32 30, i32 55, i32 91], align 4

; Function Attrs: nofree nounwind sspstrong uwtable
define dso_local i32 @main() local_unnamed_addr #0 {
  %1 = alloca i32, align 4
  %2 = bitcast i32* %1 to i8*
  call void @llvm.lifetime.start.p0i8(i64 4, i8* nonnull %2) #4
  %3 = call i32 (i8*, ...) @__isoc99_scanf(i8* getelementptr inbounds ([3 x i8], [3 x i8]* @.str, i64 0, i64 0), i32* nonnull %1)
  %4 = load i32, i32* %1, align 4, !tbaa !5
  %5 = icmp slt i32 %4, 1
  br i1 %5, label %78, label %6

6:                                                ; preds = %0
  %7 = add i32 %4, -1
  %8 = icmp ult i32 %7, 6
  br i1 %8, label %74, label %9

9:                                                ; preds = %6
  %10 = add i32 %4, -6
  %11 = icmp ult i32 %10, 8
  br i1 %11, label %52, label %12

12:                                               ; preds = %9
  %13 = and i32 %10, -8
  %14 = or i32 %10, 7
  br label %15

15:                                               ; preds = %15, %12
  %16 = phi i32 [ 0, %12 ], [ %45, %15 ]
  %17 = phi <4 x i32> [ <i32 7, i32 8, i32 9, i32 10>, %12 ], [ %46, %15 ]
  %18 = phi <4 x i32> [ <i32 91, i32 0, i32 0, i32 0>, %12 ], [ %42, %15 ]
  %19 = phi <4 x i32> [ zeroinitializer, %12 ], [ %44, %15 ]
  %20 = add <4 x i32> %17, <i32 4, i32 4, i32 4, i32 4>
  %21 = urem <4 x i32> %17, <i32 7, i32 7, i32 7, i32 7>
  %22 = urem <4 x i32> %20, <i32 7, i32 7, i32 7, i32 7>
  %23 = icmp ne <4 x i32> %21, zeroinitializer
  %24 = icmp ne <4 x i32> %22, zeroinitializer
  %25 = add nsw <4 x i32> %17, <i32 -7, i32 -7, i32 -7, i32 -7>
  %26 = add <4 x i32> %17, <i32 -3, i32 -3, i32 -3, i32 -3>
  %27 = urem <4 x i32> %25, <i32 10, i32 10, i32 10, i32 10>
  %28 = urem <4 x i32> %26, <i32 10, i32 10, i32 10, i32 10>
  %29 = icmp ne <4 x i32> %27, zeroinitializer
  %30 = icmp ne <4 x i32> %28, zeroinitializer
  %31 = add nsw <4 x i32> %17, <i32 -70, i32 -70, i32 -70, i32 -70>
  %32 = add <4 x i32> %17, <i32 -66, i32 -66, i32 -66, i32 -66>
  %33 = icmp ugt <4 x i32> %31, <i32 9, i32 9, i32 9, i32 9>
  %34 = icmp ugt <4 x i32> %32, <i32 9, i32 9, i32 9, i32 9>
  %35 = mul nsw <4 x i32> %17, %17
  %36 = mul nsw <4 x i32> %20, %20
  %37 = select <4 x i1> %23, <4 x i1> %29, <4 x i1> zeroinitializer
  %38 = select <4 x i1> %37, <4 x i1> %33, <4 x i1> zeroinitializer
  %39 = select <4 x i1> %24, <4 x i1> %30, <4 x i1> zeroinitializer
  %40 = select <4 x i1> %39, <4 x i1> %34, <4 x i1> zeroinitializer
  %41 = select <4 x i1> %38, <4 x i32> %35, <4 x i32> zeroinitializer
  %42 = add <4 x i32> %18, %41
  %43 = select <4 x i1> %40, <4 x i32> %36, <4 x i32> zeroinitializer
  %44 = add <4 x i32> %19, %43
  %45 = add nuw i32 %16, 8
  %46 = add <4 x i32> %17, <i32 8, i32 8, i32 8, i32 8>
  %47 = icmp eq i32 %45, %13
  br i1 %47, label %48, label %15, !llvm.loop !9

48:                                               ; preds = %15
  %49 = add <4 x i32> %44, %42
  %50 = call i32 @llvm.vector.reduce.add.v4i32(<4 x i32> %49)
  %51 = icmp eq i32 %10, %13
  br i1 %51, label %78, label %52

52:                                               ; preds = %9, %48
  %53 = phi i32 [ 7, %9 ], [ %14, %48 ]
  %54 = phi i32 [ 91, %9 ], [ %50, %48 ]
  br label %55

55:                                               ; preds = %52, %70
  %56 = phi i32 [ %72, %70 ], [ %53, %52 ]
  %57 = phi i32 [ %71, %70 ], [ %54, %52 ]
  %58 = urem i32 %56, 7
  %59 = icmp eq i32 %58, 0
  br i1 %59, label %70, label %60

60:                                               ; preds = %55
  %61 = add nsw i32 %56, -7
  %62 = urem i32 %61, 10
  %63 = icmp eq i32 %62, 0
  %64 = add nsw i32 %56, -70
  %65 = icmp ult i32 %64, 10
  %66 = select i1 %63, i1 true, i1 %65
  br i1 %66, label %70, label %67

67:                                               ; preds = %60
  %68 = mul nsw i32 %56, %56
  %69 = add nsw i32 %68, %57
  br label %70

70:                                               ; preds = %67, %55, %60
  %71 = phi i32 [ %57, %55 ], [ %57, %60 ], [ %69, %67 ]
  %72 = add nuw i32 %56, 1
  %73 = icmp eq i32 %56, %4
  br i1 %73, label %78, label %55, !llvm.loop !13

74:                                               ; preds = %6
  %75 = sext i32 %7 to i64
  %76 = getelementptr inbounds [6 x i32], [6 x i32]* @switch.table.main, i64 0, i64 %75
  %77 = load i32, i32* %76, align 4
  br label %78

78:                                               ; preds = %70, %48, %74, %0
  %79 = phi i32 [ 0, %0 ], [ %77, %74 ], [ %50, %48 ], [ %71, %70 ]
  %80 = call i32 (i8*, ...) @printf(i8* nonnull dereferenceable(1) getelementptr inbounds ([3 x i8], [3 x i8]* @.str, i64 0, i64 0), i32 %79)
  call void @llvm.lifetime.end.p0i8(i64 4, i8* nonnull %2) #4
  ret i32 0
}

; Function Attrs: argmemonly mustprogress nofree nosync nounwind willreturn
declare void @llvm.lifetime.start.p0i8(i64 immarg, i8* nocapture) #1

; Function Attrs: nofree nounwind
declare noundef i32 @__isoc99_scanf(i8* nocapture noundef readonly, ...) local_unnamed_addr #2

; Function Attrs: nofree nounwind
declare noundef i32 @printf(i8* nocapture noundef readonly, ...) local_unnamed_addr #2

; Function Attrs: argmemonly mustprogress nofree nosync nounwind willreturn
declare void @llvm.lifetime.end.p0i8(i64 immarg, i8* nocapture) #1

; Function Attrs: nofree nosync nounwind readnone willreturn
declare i32 @llvm.vector.reduce.add.v4i32(<4 x i32>) #3


!llvm.module.flags = !{!0, !1, !2, !3}
!llvm.ident = !{!4}

!0 = !{i32 1, !"wchar_size", i32 4}
!1 = !{i32 7, !"PIC Level", i32 2}
!2 = !{i32 7, !"PIE Level", i32 2}
!3 = !{i32 7, !"uwtable", i32 1}
!4 = !{!"clang version 13.0.0"}
!5 = !{!6, !6, i64 0}
!6 = !{!"int", !7, i64 0}
!7 = !{!"omnipotent char", !8, i64 0}
!8 = !{!"Simple C/C++ TBAA"}
!9 = distinct !{!9, !10, !11, !12}
!10 = !{!"llvm.loop.mustprogress"}
!11 = !{!"llvm.loop.peeled.count", i32 6}
!12 = !{!"llvm.loop.isvectorized", i32 1}
!13 = distinct !{!13, !10, !11, !14, !12}
!14 = !{!"llvm.loop.unroll.runtime.disable"}
